

Microchip MPLAB XC8 Assembler V2.10 build 88905656 
                                                                                               Mon Jan 27 01:59:13 2020

Microchip MPLAB XC8 C Compiler v2.10 (Free license) build 20190730164152 Og1 
     1                           	processor	16F18426
     2                           	opt	pw 120
     3                           	opt	flic
     4                           	psect	idataCOMMON,global,class=CODE,delta=2
     5                           	psect	idataBANK0,global,class=CODE,delta=2
     6                           	psect	cinit,global,class=CODE,merge=1,delta=2
     7                           	psect	dataCOMMON,global,class=COMMON,space=1,delta=1
     8                           	psect	bssBANK0,global,class=BANK0,space=1,delta=1
     9                           	psect	dataBANK0,global,class=BANK0,space=1,delta=1
    10                           	psect	inittext,global,class=CODE,delta=2
    11                           	psect	cstackCOMMON,global,class=COMMON,space=1,delta=1
    12                           	psect	cstackBANK0,global,class=BANK0,space=1,delta=1
    13                           	psect	maintext,global,class=CODE,merge=1,split=1,delta=2
    14                           	psect	text1,local,class=CODE,merge=1,delta=2
    15                           	psect	text2,local,class=CODE,merge=1,delta=2
    16                           	psect	text3,local,class=CODE,merge=1,delta=2
    17                           	psect	text4,local,class=CODE,merge=1,delta=2
    18                           	psect	intentry,global,class=CODE,delta=2
    19                           	dabs	1,0x7E,2
    20  0000                     
    21                           ; Version 2.10
    22                           ; Generated 31/07/2019 GMT
    23                           ; 
    24                           ; Copyright © 2019, Microchip Technology Inc. and its subsidiaries ("Microchip")
    25                           ; All rights reserved.
    26                           ; 
    27                           ; This software is developed by Microchip Technology Inc. and its subsidiaries ("Microch
      +                          ip").
    28                           ; 
    29                           ; Redistribution and use in source and binary forms, with or without modification, are
    30                           ; permitted provided that the following conditions are met:
    31                           ; 
    32                           ;     1. Redistributions of source code must retain the above copyright notice, this lis
      +                          t of
    33                           ;        conditions and the following disclaimer.
    34                           ; 
    35                           ;     2. Redistributions in binary form must reproduce the above copyright notice, this 
      +                          list
    36                           ;        of conditions and the following disclaimer in the documentation and/or other
    37                           ;        materials provided with the distribution.
    38                           ; 
    39                           ;     3. Microchip's name may not be used to endorse or promote products derived from th
      +                          is
    40                           ;        software without specific prior written permission.
    41                           ; 
    42                           ; THIS SOFTWARE IS PROVIDED BY MICROCHIP "AS IS" AND ANY EXPRESS OR IMPLIED WARRANTIES,
    43                           ; INCLUDING, BUT NOT LIMITED TO, THE IMPLIED WARRANTIES OF MERCHANTABILITY AND FITNESS F
      +                          OR
    44                           ; PURPOSE ARE DISCLAIMED.  IN NO EVENT SHALL MICROCHIP BE LIABLE FOR ANY DIRECT, INDIREC
      +                          T,
    45                           ; INCIDENTAL, SPECIAL, EXEMPLARY, OR CONSEQUENTIAL DAMAGES (INCLUDING BUT NOT LIMITED TO
    46                           ; PROCUREMENT OF SUBSTITUTE GOODS OR SERVICES; LOSS OF USE, DATA OR PROFITS; OR BUSINESS
    47                           ; INTERRUPTION) HOWSOEVER CAUSED AND ON ANY THEORY OF LIABILITY, WHETHER IN CONTRACT, ST
      +                          RICT
    48                           ; LIABILITY, OR TORT (INCLUDING NEGLIGENCE OR OTHERWISE) ARISING IN ANY WAY OUT OF THE U
      +                          SE OF
    49                           ; THIS SOFTWARE, EVEN IF ADVISED OF THE POSSIBILITY OF SUCH DAMAGE.
    50                           ; 
    51                           ; 
    52                           ; Code-generator required, PIC16F18426 Definitions
    53                           ; 
    54                           ; SFR Addresses
    55  0000                     	;# 
    56  0001                     	;# 
    57  0002                     	;# 
    58  0003                     	;# 
    59  0004                     	;# 
    60  0005                     	;# 
    61  0006                     	;# 
    62  0007                     	;# 
    63  0008                     	;# 
    64  0009                     	;# 
    65  000A                     	;# 
    66  000B                     	;# 
    67  000C                     	;# 
    68  000E                     	;# 
    69  0012                     	;# 
    70  0014                     	;# 
    71  0018                     	;# 
    72  001A                     	;# 
    73  008C                     	;# 
    74  008C                     	;# 
    75  008D                     	;# 
    76  008E                     	;# 
    77  008E                     	;# 
    78  008F                     	;# 
    79  0090                     	;# 
    80  0090                     	;# 
    81  0091                     	;# 
    82  0092                     	;# 
    83  0092                     	;# 
    84  0093                     	;# 
    85  0094                     	;# 
    86  0094                     	;# 
    87  0095                     	;# 
    88  0096                     	;# 
    89  0096                     	;# 
    90  0097                     	;# 
    91  0098                     	;# 
    92  0099                     	;# 
    93  009A                     	;# 
    94  009B                     	;# 
    95  009B                     	;# 
    96  009C                     	;# 
    97  009D                     	;# 
    98  009D                     	;# 
    99  009E                     	;# 
   100  009F                     	;# 
   101  010C                     	;# 
   102  010C                     	;# 
   103  010D                     	;# 
   104  010E                     	;# 
   105  010F                     	;# 
   106  010F                     	;# 
   107  0110                     	;# 
   108  0111                     	;# 
   109  0112                     	;# 
   110  0113                     	;# 
   111  0114                     	;# 
   112  0115                     	;# 
   113  0116                     	;# 
   114  0117                     	;# 
   115  0118                     	;# 
   116  0119                     	;# 
   117  0119                     	;# 
   118  0119                     	;# 
   119  011A                     	;# 
   120  011A                     	;# 
   121  011A                     	;# 
   122  011B                     	;# 
   123  011B                     	;# 
   124  011B                     	;# 
   125  011B                     	;# 
   126  011B                     	;# 
   127  011C                     	;# 
   128  011C                     	;# 
   129  011C                     	;# 
   130  011D                     	;# 
   131  011D                     	;# 
   132  011D                     	;# 
   133  011E                     	;# 
   134  011E                     	;# 
   135  011E                     	;# 
   136  011F                     	;# 
   137  011F                     	;# 
   138  011F                     	;# 
   139  011F                     	;# 
   140  011F                     	;# 
   141  018C                     	;# 
   142  018D                     	;# 
   143  018E                     	;# 
   144  018F                     	;# 
   145  0190                     	;# 
   146  0191                     	;# 
   147  0192                     	;# 
   148  0196                     	;# 
   149  0197                     	;# 
   150  0198                     	;# 
   151  0199                     	;# 
   152  019A                     	;# 
   153  019B                     	;# 
   154  019C                     	;# 
   155  020C                     	;# 
   156  020D                     	;# 
   157  020E                     	;# 
   158  020E                     	;# 
   159  020F                     	;# 
   160  020F                     	;# 
   161  0210                     	;# 
   162  0210                     	;# 
   163  0211                     	;# 
   164  0211                     	;# 
   165  0212                     	;# 
   166  0213                     	;# 
   167  0214                     	;# 
   168  0214                     	;# 
   169  0215                     	;# 
   170  0215                     	;# 
   171  0216                     	;# 
   172  0216                     	;# 
   173  0217                     	;# 
   174  0217                     	;# 
   175  0218                     	;# 
   176  0219                     	;# 
   177  021A                     	;# 
   178  021A                     	;# 
   179  021B                     	;# 
   180  021B                     	;# 
   181  021C                     	;# 
   182  021C                     	;# 
   183  021D                     	;# 
   184  021D                     	;# 
   185  021E                     	;# 
   186  021F                     	;# 
   187  028C                     	;# 
   188  028C                     	;# 
   189  028D                     	;# 
   190  028D                     	;# 
   191  028E                     	;# 
   192  028F                     	;# 
   193  0290                     	;# 
   194  0291                     	;# 
   195  0292                     	;# 
   196  0292                     	;# 
   197  0293                     	;# 
   198  0293                     	;# 
   199  0294                     	;# 
   200  0295                     	;# 
   201  0296                     	;# 
   202  0297                     	;# 
   203  0298                     	;# 
   204  0298                     	;# 
   205  0299                     	;# 
   206  0299                     	;# 
   207  029A                     	;# 
   208  029B                     	;# 
   209  029C                     	;# 
   210  029D                     	;# 
   211  029F                     	;# 
   212  030C                     	;# 
   213  030C                     	;# 
   214  030D                     	;# 
   215  030E                     	;# 
   216  030F                     	;# 
   217  0310                     	;# 
   218  0310                     	;# 
   219  0311                     	;# 
   220  0312                     	;# 
   221  0313                     	;# 
   222  0314                     	;# 
   223  0314                     	;# 
   224  0315                     	;# 
   225  0316                     	;# 
   226  0317                     	;# 
   227  0318                     	;# 
   228  0318                     	;# 
   229  0319                     	;# 
   230  031A                     	;# 
   231  031B                     	;# 
   232  038C                     	;# 
   233  038C                     	;# 
   234  038D                     	;# 
   235  038E                     	;# 
   236  0390                     	;# 
   237  0390                     	;# 
   238  0391                     	;# 
   239  0392                     	;# 
   240  048C                     	;# 
   241  048C                     	;# 
   242  048D                     	;# 
   243  048E                     	;# 
   244  048F                     	;# 
   245  048F                     	;# 
   246  0490                     	;# 
   247  0491                     	;# 
   248  0492                     	;# 
   249  0492                     	;# 
   250  0493                     	;# 
   251  0494                     	;# 
   252  0495                     	;# 
   253  0495                     	;# 
   254  0496                     	;# 
   255  0497                     	;# 
   256  0498                     	;# 
   257  0499                     	;# 
   258  049A                     	;# 
   259  049B                     	;# 
   260  049C                     	;# 
   261  049D                     	;# 
   262  058C                     	;# 
   263  058C                     	;# 
   264  058D                     	;# 
   265  058E                     	;# 
   266  058F                     	;# 
   267  058F                     	;# 
   268  0590                     	;# 
   269  0591                     	;# 
   270  0592                     	;# 
   271  0593                     	;# 
   272  059C                     	;# 
   273  059C                     	;# 
   274  059D                     	;# 
   275  059D                     	;# 
   276  059E                     	;# 
   277  059F                     	;# 
   278  060C                     	;# 
   279  060C                     	;# 
   280  060D                     	;# 
   281  060D                     	;# 
   282  060E                     	;# 
   283  060F                     	;# 
   284  0610                     	;# 
   285  0611                     	;# 
   286  0612                     	;# 
   287  0613                     	;# 
   288  0614                     	;# 
   289  0616                     	;# 
   290  0616                     	;# 
   291  0617                     	;# 
   292  0617                     	;# 
   293  0618                     	;# 
   294  0619                     	;# 
   295  061A                     	;# 
   296  061B                     	;# 
   297  061C                     	;# 
   298  061D                     	;# 
   299  061E                     	;# 
   300  070C                     	;# 
   301  070D                     	;# 
   302  070E                     	;# 
   303  070F                     	;# 
   304  0710                     	;# 
   305  0711                     	;# 
   306  0712                     	;# 
   307  0713                     	;# 
   308  0714                     	;# 
   309  0716                     	;# 
   310  0717                     	;# 
   311  0718                     	;# 
   312  0719                     	;# 
   313  071A                     	;# 
   314  071B                     	;# 
   315  071C                     	;# 
   316  071D                     	;# 
   317  071E                     	;# 
   318  0796                     	;# 
   319  0797                     	;# 
   320  0798                     	;# 
   321  0799                     	;# 
   322  079A                     	;# 
   323  079B                     	;# 
   324  079C                     	;# 
   325  079D                     	;# 
   326  080C                     	;# 
   327  080D                     	;# 
   328  080E                     	;# 
   329  080F                     	;# 
   330  0810                     	;# 
   331  0811                     	;# 
   332  0812                     	;# 
   333  0813                     	;# 
   334  0814                     	;# 
   335  081A                     	;# 
   336  081A                     	;# 
   337  081B                     	;# 
   338  081C                     	;# 
   339  081C                     	;# 
   340  081D                     	;# 
   341  081E                     	;# 
   342  081F                     	;# 
   343  088C                     	;# 
   344  088D                     	;# 
   345  088E                     	;# 
   346  088F                     	;# 
   347  0890                     	;# 
   348  0891                     	;# 
   349  0892                     	;# 
   350  0893                     	;# 
   351  0895                     	;# 
   352  0896                     	;# 
   353  0897                     	;# 
   354  0898                     	;# 
   355  0899                     	;# 
   356  089A                     	;# 
   357  089B                     	;# 
   358  090C                     	;# 
   359  090E                     	;# 
   360  090F                     	;# 
   361  091F                     	;# 
   362  098F                     	;# 
   363  098F                     	;# 
   364  0990                     	;# 
   365  0991                     	;# 
   366  0992                     	;# 
   367  0993                     	;# 
   368  0994                     	;# 
   369  0995                     	;# 
   370  0996                     	;# 
   371  0997                     	;# 
   372  1E0F                     	;# 
   373  1E10                     	;# 
   374  1E11                     	;# 
   375  1E12                     	;# 
   376  1E13                     	;# 
   377  1E14                     	;# 
   378  1E15                     	;# 
   379  1E16                     	;# 
   380  1E17                     	;# 
   381  1E18                     	;# 
   382  1E19                     	;# 
   383  1E1A                     	;# 
   384  1E1B                     	;# 
   385  1E1C                     	;# 
   386  1E1D                     	;# 
   387  1E1E                     	;# 
   388  1E1F                     	;# 
   389  1E20                     	;# 
   390  1E21                     	;# 
   391  1E22                     	;# 
   392  1E23                     	;# 
   393  1E24                     	;# 
   394  1E25                     	;# 
   395  1E26                     	;# 
   396  1E27                     	;# 
   397  1E28                     	;# 
   398  1E29                     	;# 
   399  1E2A                     	;# 
   400  1E2B                     	;# 
   401  1E2C                     	;# 
   402  1E2D                     	;# 
   403  1E2E                     	;# 
   404  1E2F                     	;# 
   405  1E30                     	;# 
   406  1E31                     	;# 
   407  1E32                     	;# 
   408  1E33                     	;# 
   409  1E34                     	;# 
   410  1E35                     	;# 
   411  1E36                     	;# 
   412  1E37                     	;# 
   413  1E8F                     	;# 
   414  1E90                     	;# 
   415  1E91                     	;# 
   416  1E92                     	;# 
   417  1E93                     	;# 
   418  1E94                     	;# 
   419  1E95                     	;# 
   420  1E96                     	;# 
   421  1E97                     	;# 
   422  1E9C                     	;# 
   423  1E9D                     	;# 
   424  1E9E                     	;# 
   425  1EA1                     	;# 
   426  1EA2                     	;# 
   427  1EA3                     	;# 
   428  1EA4                     	;# 
   429  1EA9                     	;# 
   430  1EAA                     	;# 
   431  1EB1                     	;# 
   432  1EB2                     	;# 
   433  1EB8                     	;# 
   434  1EB9                     	;# 
   435  1EBA                     	;# 
   436  1EBB                     	;# 
   437  1EBC                     	;# 
   438  1EBD                     	;# 
   439  1EBE                     	;# 
   440  1EC3                     	;# 
   441  1EC5                     	;# 
   442  1EC6                     	;# 
   443  1EC7                     	;# 
   444  1EC8                     	;# 
   445  1EC9                     	;# 
   446  1ECA                     	;# 
   447  1ECB                     	;# 
   448  1ECC                     	;# 
   449  1F10                     	;# 
   450  1F11                     	;# 
   451  1F12                     	;# 
   452  1F14                     	;# 
   453  1F15                     	;# 
   454  1F20                     	;# 
   455  1F21                     	;# 
   456  1F22                     	;# 
   457  1F23                     	;# 
   458  1F24                     	;# 
   459  1F25                     	;# 
   460  1F38                     	;# 
   461  1F39                     	;# 
   462  1F3A                     	;# 
   463  1F3B                     	;# 
   464  1F3C                     	;# 
   465  1F3D                     	;# 
   466  1F3E                     	;# 
   467  1F3F                     	;# 
   468  1F4E                     	;# 
   469  1F4F                     	;# 
   470  1F50                     	;# 
   471  1F51                     	;# 
   472  1F52                     	;# 
   473  1F53                     	;# 
   474  1F54                     	;# 
   475  1F55                     	;# 
   476  1FE4                     	;# 
   477  1FE5                     	;# 
   478  1FE6                     	;# 
   479  1FE7                     	;# 
   480  1FE8                     	;# 
   481  1FE8                     	;# 
   482  1FE9                     	;# 
   483  1FEA                     	;# 
   484  1FEB                     	;# 
   485  1FED                     	;# 
   486  1FEE                     	;# 
   487  1FEF                     	;# 
   488  0000                     	;# 
   489  0001                     	;# 
   490  0002                     	;# 
   491  0003                     	;# 
   492  0004                     	;# 
   493  0005                     	;# 
   494  0006                     	;# 
   495  0007                     	;# 
   496  0008                     	;# 
   497  0009                     	;# 
   498  000A                     	;# 
   499  000B                     	;# 
   500  000C                     	;# 
   501  000E                     	;# 
   502  0012                     	;# 
   503  0014                     	;# 
   504  0018                     	;# 
   505  001A                     	;# 
   506  008C                     	;# 
   507  008C                     	;# 
   508  008D                     	;# 
   509  008E                     	;# 
   510  008E                     	;# 
   511  008F                     	;# 
   512  0090                     	;# 
   513  0090                     	;# 
   514  0091                     	;# 
   515  0092                     	;# 
   516  0092                     	;# 
   517  0093                     	;# 
   518  0094                     	;# 
   519  0094                     	;# 
   520  0095                     	;# 
   521  0096                     	;# 
   522  0096                     	;# 
   523  0097                     	;# 
   524  0098                     	;# 
   525  0099                     	;# 
   526  009A                     	;# 
   527  009B                     	;# 
   528  009B                     	;# 
   529  009C                     	;# 
   530  009D                     	;# 
   531  009D                     	;# 
   532  009E                     	;# 
   533  009F                     	;# 
   534  010C                     	;# 
   535  010C                     	;# 
   536  010D                     	;# 
   537  010E                     	;# 
   538  010F                     	;# 
   539  010F                     	;# 
   540  0110                     	;# 
   541  0111                     	;# 
   542  0112                     	;# 
   543  0113                     	;# 
   544  0114                     	;# 
   545  0115                     	;# 
   546  0116                     	;# 
   547  0117                     	;# 
   548  0118                     	;# 
   549  0119                     	;# 
   550  0119                     	;# 
   551  0119                     	;# 
   552  011A                     	;# 
   553  011A                     	;# 
   554  011A                     	;# 
   555  011B                     	;# 
   556  011B                     	;# 
   557  011B                     	;# 
   558  011B                     	;# 
   559  011B                     	;# 
   560  011C                     	;# 
   561  011C                     	;# 
   562  011C                     	;# 
   563  011D                     	;# 
   564  011D                     	;# 
   565  011D                     	;# 
   566  011E                     	;# 
   567  011E                     	;# 
   568  011E                     	;# 
   569  011F                     	;# 
   570  011F                     	;# 
   571  011F                     	;# 
   572  011F                     	;# 
   573  011F                     	;# 
   574  018C                     	;# 
   575  018D                     	;# 
   576  018E                     	;# 
   577  018F                     	;# 
   578  0190                     	;# 
   579  0191                     	;# 
   580  0192                     	;# 
   581  0196                     	;# 
   582  0197                     	;# 
   583  0198                     	;# 
   584  0199                     	;# 
   585  019A                     	;# 
   586  019B                     	;# 
   587  019C                     	;# 
   588  020C                     	;# 
   589  020D                     	;# 
   590  020E                     	;# 
   591  020E                     	;# 
   592  020F                     	;# 
   593  020F                     	;# 
   594  0210                     	;# 
   595  0210                     	;# 
   596  0211                     	;# 
   597  0211                     	;# 
   598  0212                     	;# 
   599  0213                     	;# 
   600  0214                     	;# 
   601  0214                     	;# 
   602  0215                     	;# 
   603  0215                     	;# 
   604  0216                     	;# 
   605  0216                     	;# 
   606  0217                     	;# 
   607  0217                     	;# 
   608  0218                     	;# 
   609  0219                     	;# 
   610  021A                     	;# 
   611  021A                     	;# 
   612  021B                     	;# 
   613  021B                     	;# 
   614  021C                     	;# 
   615  021C                     	;# 
   616  021D                     	;# 
   617  021D                     	;# 
   618  021E                     	;# 
   619  021F                     	;# 
   620  028C                     	;# 
   621  028C                     	;# 
   622  028D                     	;# 
   623  028D                     	;# 
   624  028E                     	;# 
   625  028F                     	;# 
   626  0290                     	;# 
   627  0291                     	;# 
   628  0292                     	;# 
   629  0292                     	;# 
   630  0293                     	;# 
   631  0293                     	;# 
   632  0294                     	;# 
   633  0295                     	;# 
   634  0296                     	;# 
   635  0297                     	;# 
   636  0298                     	;# 
   637  0298                     	;# 
   638  0299                     	;# 
   639  0299                     	;# 
   640  029A                     	;# 
   641  029B                     	;# 
   642  029C                     	;# 
   643  029D                     	;# 
   644  029F                     	;# 
   645  030C                     	;# 
   646  030C                     	;# 
   647  030D                     	;# 
   648  030E                     	;# 
   649  030F                     	;# 
   650  0310                     	;# 
   651  0310                     	;# 
   652  0311                     	;# 
   653  0312                     	;# 
   654  0313                     	;# 
   655  0314                     	;# 
   656  0314                     	;# 
   657  0315                     	;# 
   658  0316                     	;# 
   659  0317                     	;# 
   660  0318                     	;# 
   661  0318                     	;# 
   662  0319                     	;# 
   663  031A                     	;# 
   664  031B                     	;# 
   665  038C                     	;# 
   666  038C                     	;# 
   667  038D                     	;# 
   668  038E                     	;# 
   669  0390                     	;# 
   670  0390                     	;# 
   671  0391                     	;# 
   672  0392                     	;# 
   673  048C                     	;# 
   674  048C                     	;# 
   675  048D                     	;# 
   676  048E                     	;# 
   677  048F                     	;# 
   678  048F                     	;# 
   679  0490                     	;# 
   680  0491                     	;# 
   681  0492                     	;# 
   682  0492                     	;# 
   683  0493                     	;# 
   684  0494                     	;# 
   685  0495                     	;# 
   686  0495                     	;# 
   687  0496                     	;# 
   688  0497                     	;# 
   689  0498                     	;# 
   690  0499                     	;# 
   691  049A                     	;# 
   692  049B                     	;# 
   693  049C                     	;# 
   694  049D                     	;# 
   695  058C                     	;# 
   696  058C                     	;# 
   697  058D                     	;# 
   698  058E                     	;# 
   699  058F                     	;# 
   700  058F                     	;# 
   701  0590                     	;# 
   702  0591                     	;# 
   703  0592                     	;# 
   704  0593                     	;# 
   705  059C                     	;# 
   706  059C                     	;# 
   707  059D                     	;# 
   708  059D                     	;# 
   709  059E                     	;# 
   710  059F                     	;# 
   711  060C                     	;# 
   712  060C                     	;# 
   713  060D                     	;# 
   714  060D                     	;# 
   715  060E                     	;# 
   716  060F                     	;# 
   717  0610                     	;# 
   718  0611                     	;# 
   719  0612                     	;# 
   720  0613                     	;# 
   721  0614                     	;# 
   722  0616                     	;# 
   723  0616                     	;# 
   724  0617                     	;# 
   725  0617                     	;# 
   726  0618                     	;# 
   727  0619                     	;# 
   728  061A                     	;# 
   729  061B                     	;# 
   730  061C                     	;# 
   731  061D                     	;# 
   732  061E                     	;# 
   733  070C                     	;# 
   734  070D                     	;# 
   735  070E                     	;# 
   736  070F                     	;# 
   737  0710                     	;# 
   738  0711                     	;# 
   739  0712                     	;# 
   740  0713                     	;# 
   741  0714                     	;# 
   742  0716                     	;# 
   743  0717                     	;# 
   744  0718                     	;# 
   745  0719                     	;# 
   746  071A                     	;# 
   747  071B                     	;# 
   748  071C                     	;# 
   749  071D                     	;# 
   750  071E                     	;# 
   751  0796                     	;# 
   752  0797                     	;# 
   753  0798                     	;# 
   754  0799                     	;# 
   755  079A                     	;# 
   756  079B                     	;# 
   757  079C                     	;# 
   758  079D                     	;# 
   759  080C                     	;# 
   760  080D                     	;# 
   761  080E                     	;# 
   762  080F                     	;# 
   763  0810                     	;# 
   764  0811                     	;# 
   765  0812                     	;# 
   766  0813                     	;# 
   767  0814                     	;# 
   768  081A                     	;# 
   769  081A                     	;# 
   770  081B                     	;# 
   771  081C                     	;# 
   772  081C                     	;# 
   773  081D                     	;# 
   774  081E                     	;# 
   775  081F                     	;# 
   776  088C                     	;# 
   777  088D                     	;# 
   778  088E                     	;# 
   779  088F                     	;# 
   780  0890                     	;# 
   781  0891                     	;# 
   782  0892                     	;# 
   783  0893                     	;# 
   784  0895                     	;# 
   785  0896                     	;# 
   786  0897                     	;# 
   787  0898                     	;# 
   788  0899                     	;# 
   789  089A                     	;# 
   790  089B                     	;# 
   791  090C                     	;# 
   792  090E                     	;# 
   793  090F                     	;# 
   794  091F                     	;# 
   795  098F                     	;# 
   796  098F                     	;# 
   797  0990                     	;# 
   798  0991                     	;# 
   799  0992                     	;# 
   800  0993                     	;# 
   801  0994                     	;# 
   802  0995                     	;# 
   803  0996                     	;# 
   804  0997                     	;# 
   805  1E0F                     	;# 
   806  1E10                     	;# 
   807  1E11                     	;# 
   808  1E12                     	;# 
   809  1E13                     	;# 
   810  1E14                     	;# 
   811  1E15                     	;# 
   812  1E16                     	;# 
   813  1E17                     	;# 
   814  1E18                     	;# 
   815  1E19                     	;# 
   816  1E1A                     	;# 
   817  1E1B                     	;# 
   818  1E1C                     	;# 
   819  1E1D                     	;# 
   820  1E1E                     	;# 
   821  1E1F                     	;# 
   822  1E20                     	;# 
   823  1E21                     	;# 
   824  1E22                     	;# 
   825  1E23                     	;# 
   826  1E24                     	;# 
   827  1E25                     	;# 
   828  1E26                     	;# 
   829  1E27                     	;# 
   830  1E28                     	;# 
   831  1E29                     	;# 
   832  1E2A                     	;# 
   833  1E2B                     	;# 
   834  1E2C                     	;# 
   835  1E2D                     	;# 
   836  1E2E                     	;# 
   837  1E2F                     	;# 
   838  1E30                     	;# 
   839  1E31                     	;# 
   840  1E32                     	;# 
   841  1E33                     	;# 
   842  1E34                     	;# 
   843  1E35                     	;# 
   844  1E36                     	;# 
   845  1E37                     	;# 
   846  1E8F                     	;# 
   847  1E90                     	;# 
   848  1E91                     	;# 
   849  1E92                     	;# 
   850  1E93                     	;# 
   851  1E94                     	;# 
   852  1E95                     	;# 
   853  1E96                     	;# 
   854  1E97                     	;# 
   855  1E9C                     	;# 
   856  1E9D                     	;# 
   857  1E9E                     	;# 
   858  1EA1                     	;# 
   859  1EA2                     	;# 
   860  1EA3                     	;# 
   861  1EA4                     	;# 
   862  1EA9                     	;# 
   863  1EAA                     	;# 
   864  1EB1                     	;# 
   865  1EB2                     	;# 
   866  1EB8                     	;# 
   867  1EB9                     	;# 
   868  1EBA                     	;# 
   869  1EBB                     	;# 
   870  1EBC                     	;# 
   871  1EBD                     	;# 
   872  1EBE                     	;# 
   873  1EC3                     	;# 
   874  1EC5                     	;# 
   875  1EC6                     	;# 
   876  1EC7                     	;# 
   877  1EC8                     	;# 
   878  1EC9                     	;# 
   879  1ECA                     	;# 
   880  1ECB                     	;# 
   881  1ECC                     	;# 
   882  1F10                     	;# 
   883  1F11                     	;# 
   884  1F12                     	;# 
   885  1F14                     	;# 
   886  1F15                     	;# 
   887  1F20                     	;# 
   888  1F21                     	;# 
   889  1F22                     	;# 
   890  1F23                     	;# 
   891  1F24                     	;# 
   892  1F25                     	;# 
   893  1F38                     	;# 
   894  1F39                     	;# 
   895  1F3A                     	;# 
   896  1F3B                     	;# 
   897  1F3C                     	;# 
   898  1F3D                     	;# 
   899  1F3E                     	;# 
   900  1F3F                     	;# 
   901  1F4E                     	;# 
   902  1F4F                     	;# 
   903  1F50                     	;# 
   904  1F51                     	;# 
   905  1F52                     	;# 
   906  1F53                     	;# 
   907  1F54                     	;# 
   908  1F55                     	;# 
   909  1FE4                     	;# 
   910  1FE5                     	;# 
   911  1FE6                     	;# 
   912  1FE7                     	;# 
   913  1FE8                     	;# 
   914  1FE8                     	;# 
   915  1FE9                     	;# 
   916  1FEA                     	;# 
   917  1FEB                     	;# 
   918  1FED                     	;# 
   919  1FEE                     	;# 
   920  1FEF                     	;# 
   921                           
   922                           	psect	idataCOMMON
   923  01AC                     __pidataCOMMON:	
   924                           
   925                           ;initializer for _powerontime
   926  01AC  34DC               	retlw	220
   927  01AD  3405               	retlw	5
   928                           
   929                           	psect	idataBANK0
   930  0156                     __pidataBANK0:	
   931                           
   932                           ;initializer for _times
   933  0156  341E               	retlw	30
   934  0157  3400               	retlw	0
   935  0158  343C               	retlw	60
   936  0159  3400               	retlw	0
   937  015A  345A               	retlw	90
   938  015B  3400               	retlw	0
   939  015C  3478               	retlw	120
   940  015D  3400               	retlw	0
   941  015E  3496               	retlw	150
   942  015F  3400               	retlw	0
   943  0160  34B4               	retlw	180
   944  0161  3400               	retlw	0
   945                           
   946                           ;initializer for _levels
   947  0162  3433               	retlw	51
   948  0163  3403               	retlw	3
   949  0164  34AA               	retlw	170
   950  0165  3403               	retlw	3
   951  0166  34CD               	retlw	205
   952  0167  3404               	retlw	4
   953  0168  3466               	retlw	102
   954  0169  3406               	retlw	6
   955  016A  3400               	retlw	0
   956  016B  3408               	retlw	8
   957  016C  3499               	retlw	153
   958  016D  3409               	retlw	9
   959  0012                     _TRISAbits	set	18
   960  001A                     _LATCbits	set	26
   961  000B                     _INTCONbits	set	11
   962  0014                     _TRISCbits	set	20
   963  009D                     _ADRESL	set	157
   964  009E                     _ADRESH	set	158
   965  009F                     _ADPCHbits	set	159
   966  0111                     _ADCON0bits	set	273
   967  0290                     _T2CLKCONbits	set	656
   968  028F                     _T2HLTbits	set	655
   969  028E                     _T2CONbits	set	654
   970  038C                     _PWM6DC	set	908
   971  038E                     _PWM6CONbits	set	910
   972  059C                     _TMR0L	set	1436
   973  059F                     _T0CON1bits	set	1439
   974  059E                     _T0CON0bits	set	1438
   975  0716                     _PIE0bits	set	1814
   976  3865                     _TMR0IF	set	14437
   977  38B5                     _TMR0IE	set	14517
   978  0893                     _OSCFRQbits	set	2195
   979  088D                     _OSCCON1bits	set	2189
   980  1F15                     _RA5PPS	set	7957
   981                           
   982                           ; #config settings
   983  0000                     
   984                           	psect	cinit
   985  0062                     start_initialization:	
   986  0062                     __initialization:	
   987                           
   988                           ; Initialize objects allocated to COMMON
   989  0062  3181  21AC  3180   	fcall	__pidataCOMMON	;fetch initializer
   990  0065  00FA               	movwf	__pdataCOMMON& (0+127)
   991  0066  3181  21AD  3180   	fcall	__pidataCOMMON+1	;fetch initializer
   992  0069  00FB               	movwf	(__pdataCOMMON+1)& (0+127)
   993                           
   994                           ; Initialize objects allocated to BANK0
   995  006A  3056               	movlw	low __pidataBANK0
   996  006B  0084               	movwf	4
   997  006C  3081               	movlw	(high __pidataBANK0)| (0+128)
   998  006D  0085               	movwf	5
   999  006E  3020               	movlw	low __pdataBANK0
  1000  006F  0086               	movwf	6
  1001  0070  3000               	movlw	high __pdataBANK0
  1002  0071  0087               	movwf	7
  1003  0072  3018               	movlw	24
  1004  0073  3181  21A6  3180   	fcall	init_ram
  1005                           
  1006                           ; Clear objects allocated to BANK0
  1007  0076  01B8               	clrf	__pbssBANK0& (0+127)
  1008  0077  01B9               	clrf	(__pbssBANK0+1)& (0+127)
  1009  0078  01BA               	clrf	(__pbssBANK0+2)& (0+127)
  1010  0079  01BB               	clrf	(__pbssBANK0+3)& (0+127)
  1011  007A  01BC               	clrf	(__pbssBANK0+4)& (0+127)
  1012  007B  01BD               	clrf	(__pbssBANK0+5)& (0+127)
  1013  007C  01BE               	clrf	(__pbssBANK0+6)& (0+127)
  1014  007D  01BF               	clrf	(__pbssBANK0+7)& (0+127)
  1015  007E  01C0               	clrf	(__pbssBANK0+8)& (0+127)
  1016  007F  01C1               	clrf	(__pbssBANK0+9)& (0+127)
  1017  0080  01C2               	clrf	(__pbssBANK0+10)& (0+127)
  1018  0081  01C3               	clrf	(__pbssBANK0+11)& (0+127)
  1019  0082                     end_of_initialization:	
  1020                           ;End of C runtime variable initialization code
  1021                           
  1022  0082                     __end_of__initialization:	
  1023  0082  107E               	bcf	int$flags,0	;clear compiler interrupt flag (level 1)
  1024  0083  0140               	movlb	0
  1025  0084  3180  2886         	ljmp	_main	;jump to C main() function
  1026                           
  1027                           	psect	dataCOMMON
  1028  007A                     __pdataCOMMON:	
  1029  007A                     _powerontime:	
  1030  007A                     	ds	2
  1031                           
  1032                           	psect	bssBANK0
  1033  0038                     __pbssBANK0:	
  1034  0038                     _ontimer:	
  1035  0038                     	ds	2
  1036  003A                     _offtimer:	
  1037  003A                     	ds	2
  1038  003C                     _jumpers:	
  1039  003C                     	ds	2
  1040  003E                     _reading:	
  1041  003E                     	ds	2
  1042  0040                     _millisec:	
  1043  0040                     	ds	2
  1044  0042                     _result:	
  1045  0042                     	ds	2
  1046                           
  1047                           	psect	dataBANK0
  1048  0020                     __pdataBANK0:	
  1049  0020                     _times:	
  1050  0020                     	ds	12
  1051  002C                     _levels:	
  1052  002C                     	ds	12
  1053                           
  1054                           	psect	inittext
  1055  01A6                     init_ram:	
  1056  01A6  00FE               	movwf	btemp
  1057  01A7                     initloop:	
  1058  01A7  0012               	moviw fsr0++
  1059  01A8  001E               	movwi fsr1++
  1060  01A9  0BFE               	decfsz	btemp,f
  1061  01AA  29A7               	goto	initloop
  1062  01AB  3400               	retlw	0
  1063                           
  1064                           	psect	cstackCOMMON
  1065  0070                     __pcstackCOMMON:	
  1066  0070                     ?_pwm_init:	
  1067  0070                     ?_adc_init:	
  1068                           ; 1 bytes @ 0x0
  1069                           
  1070  0070                     ?_main:	
  1071                           ; 1 bytes @ 0x0
  1072                           
  1073  0070                     ?_my_isr_routine:	
  1074                           ; 1 bytes @ 0x0
  1075                           
  1076  0070                     ??_my_isr_routine:	
  1077                           ; 1 bytes @ 0x0
  1078                           
  1079                           
  1080                           ; 1 bytes @ 0x0
  1081  0070                     	ds	1
  1082  0071                     ??_pwm_init:	
  1083  0071                     ??_adc_init:	
  1084                           ; 1 bytes @ 0x1
  1085                           
  1086  0071                     ?_adc_read:	
  1087                           ; 1 bytes @ 0x1
  1088                           
  1089                           
  1090                           ; 2 bytes @ 0x1
  1091  0071                     	ds	2
  1092  0073                     ??_adc_read:	
  1093                           
  1094                           ; 1 bytes @ 0x3
  1095  0073                     	ds	3
  1096  0076                     ?_pwm_set:	
  1097  0076                     pwm_set@value:	
  1098                           ; 1 bytes @ 0x6
  1099                           
  1100                           
  1101                           ; 2 bytes @ 0x6
  1102  0076                     	ds	2
  1103  0078                     ??_pwm_set:	
  1104                           
  1105                           ; 1 bytes @ 0x8
  1106  0078                     	ds	2
  1107                           
  1108                           	psect	cstackBANK0
  1109  0044                     __pcstackBANK0:	
  1110  0044                     ??_main:	
  1111                           
  1112                           ; 1 bytes @ 0x0
  1113  0044                     	ds	2
  1114                           
  1115                           	psect	maintext
  1116  0086                     __pmaintext:	
  1117 ;;
  1118 ;;Main: autosize = 0, tempsize = 2, incstack = 0, save=0
  1119 ;;
  1120 ;; *************** function _main *****************
  1121 ;; Defined at:
  1122 ;;		line 71 in file "newmain.c"
  1123 ;; Parameters:    Size  Location     Type
  1124 ;;		None
  1125 ;; Auto vars:     Size  Location     Type
  1126 ;;		None
  1127 ;; Return value:  Size  Location     Type
  1128 ;;                  1    wreg      void 
  1129 ;; Registers used:
  1130 ;;		wreg, status,2, status,0, pclath, cstack
  1131 ;; Tracked objects:
  1132 ;;		On entry : B3F/0
  1133 ;;		On exit  : 0/0
  1134 ;;		Unchanged: 0/0
  1135 ;; Data sizes:     COMMON   BANK0   BANK1   BANK2   BANK3   BANK4   BANK5   BANK6   BANK7   BANK8   BANK9  BANK10  BANK1
      +1  BANK12  BANK13  BANK14  BANK15  BANK16  BANK17  BANK18  BANK19  BANK20  BANK21  BANK22  BANK23  BANK24  BANK25
  1136 ;;      Params:         0       0       0       0       0       0       0       0       0       0       0       0       
      +0       0       0       0       0       0       0       0       0       0       0       0       0       0       0
  1137 ;;      Locals:         0       0       0       0       0       0       0       0       0       0       0       0       
      +0       0       0       0       0       0       0       0       0       0       0       0       0       0       0
  1138 ;;      Temps:          0       2       0       0       0       0       0       0       0       0       0       0       
      +0       0       0       0       0       0       0       0       0       0       0       0       0       0       0
  1139 ;;      Totals:         0       2       0       0       0       0       0       0       0       0       0       0       
      +0       0       0       0       0       0       0       0       0       0       0       0       0       0       0
  1140 ;;Total ram usage:        2 bytes
  1141 ;; Hardware stack levels required when called:    2
  1142 ;; This function calls:
  1143 ;;		_adc_init
  1144 ;;		_adc_read
  1145 ;;		_pwm_init
  1146 ;;		_pwm_set
  1147 ;; This function is called by:
  1148 ;;		Startup code after reset
  1149 ;; This function uses a non-reentrant model
  1150 ;;
  1151                           
  1152                           
  1153                           ;psect for function _main
  1154  0086                     _main:	
  1155  0086                     l946:	
  1156                           ;incstack = 0
  1157                           ; Regs used in _main: [wreg+status,2+status,0+pclath+cstack]
  1158                           
  1159                           
  1160                           ;newmain.c: 72:     TRISCbits.TRISC3 = 0;
  1161  0086  0140               	movlb	0	; select bank0
  1162  0087  1194               	bcf	20,3	;volatile
  1163                           
  1164                           ;newmain.c: 73:     TRISCbits.TRISC2 = 0;
  1165  0088  1114               	bcf	20,2	;volatile
  1166  0089                     l948:	
  1167                           
  1168                           ;newmain.c: 74:     OSCCON1bits.NOSC = 0b110;
  1169  0089  0151               	movlb	17	; select bank17
  1170  008A  080D               	movf	13,w	;volatile
  1171  008B  398F               	andlw	-113
  1172  008C  3860               	iorlw	96
  1173  008D  008D               	movwf	13	;volatile
  1174                           
  1175                           ;newmain.c: 75:     OSCCON1bits.NDIV = 0;
  1176  008E  30F0               	movlw	-16
  1177  008F  058D               	andwf	13,f	;volatile
  1178                           
  1179                           ;newmain.c: 76:     OSCFRQbits.HFFRQ = 0b110;
  1180  0090  0813               	movf	19,w	;volatile
  1181  0091  39F8               	andlw	-8
  1182  0092  3806               	iorlw	6
  1183  0093  0093               	movwf	19	;volatile
  1184  0094                     l950:	
  1185                           
  1186                           ;newmain.c: 77:     INTCONbits.GIE= 1;
  1187  0094  178B               	bsf	11,7	;volatile
  1188  0095                     l952:	
  1189                           
  1190                           ;newmain.c: 78:     INTCONbits.PEIE = 1;
  1191  0095  170B               	bsf	11,6	;volatile
  1192  0096                     l954:	
  1193                           
  1194                           ;newmain.c: 79:     T0CON0bits.EN = 1;
  1195  0096  014B               	movlb	11	; select bank11
  1196  0097  179E               	bsf	30,7	;volatile
  1197                           
  1198                           ;newmain.c: 80:     T0CON1bits.CS = 0b010;
  1199  0098  081F               	movf	31,w	;volatile
  1200  0099  391F               	andlw	-225
  1201  009A  3840               	iorlw	64
  1202  009B  009F               	movwf	31	;volatile
  1203                           
  1204                           ;newmain.c: 81:     T0CON1bits.T0CKPS = 0b0101;
  1205  009C  081F               	movf	31,w	;volatile
  1206  009D  39F0               	andlw	-16
  1207  009E  3805               	iorlw	5
  1208  009F  009F               	movwf	31	;volatile
  1209  00A0                     l956:	
  1210                           
  1211                           ;newmain.c: 82:     PIE0bits.TMR0IE = 1;
  1212  00A0  014E               	movlb	14	; select bank14
  1213  00A1  1696               	bsf	22,5	;volatile
  1214  00A2                     l958:	
  1215                           
  1216                           ;newmain.c: 84:     pwm_init();
  1217  00A2  3181  216E  3180   	fcall	_pwm_init
  1218  00A5                     l960:	
  1219                           
  1220                           ;newmain.c: 85:     adc_init();
  1221  00A5  3181  2197  3180   	fcall	_adc_init
  1222  00A8                     l962:	
  1223                           
  1224                           ;newmain.c: 86:     pwm_set(600);
  1225  00A8  3058               	movlw	88
  1226  00A9  00F6               	movwf	pwm_set@value
  1227  00AA  3002               	movlw	2
  1228  00AB  00F7               	movwf	pwm_set@value+1
  1229  00AC  3181  2184  3180   	fcall	_pwm_set
  1230  00AF                     l964:	
  1231                           
  1232                           ;newmain.c: 89:     {;newmain.c: 90:        pwm_set( (adc_read()>>2) );
  1233  00AF  3181  212E  3180   	fcall	_adc_read
  1234  00B2  0871               	movf	?_adc_read,w
  1235  00B3  0140               	movlb	0	; select bank0
  1236  00B4  00C4               	movwf	??_main
  1237  00B5  0872               	movf	?_adc_read+1,w
  1238  00B6  00C5               	movwf	??_main+1
  1239  00B7  0D45               	rlf	??_main+1,w
  1240  00B8  0CC5               	rrf	??_main+1,f
  1241  00B9  0CC4               	rrf	??_main,f
  1242  00BA  0D45               	rlf	??_main+1,w
  1243  00BB  0CC5               	rrf	??_main+1,f
  1244  00BC  0CC4               	rrf	??_main,f
  1245  00BD  0844               	movf	??_main,w
  1246  00BE  00F6               	movwf	pwm_set@value
  1247  00BF  0845               	movf	??_main+1,w
  1248  00C0  00F7               	movwf	pwm_set@value+1
  1249  00C1  3181  2184  3180   	fcall	_pwm_set
  1250  00C4                     l966:	
  1251                           
  1252                           ;newmain.c: 91:        _delay((unsigned long)((100)*(32000000/4000.0)));
  1253  00C4  3005               	movlw	5
  1254  00C5  0140               	movlb	0	; select bank0
  1255  00C6  00C5               	movwf	??_main+1
  1256  00C7  300F               	movlw	15
  1257  00C8  00C4               	movwf	??_main
  1258  00C9  30F1               	movlw	241
  1259  00CA                     u367:	
  1260  00CA  0B89               	decfsz	9,f
  1261  00CB  28CA               	goto	u367
  1262  00CC  0BC4               	decfsz	??_main,f
  1263  00CD  28CA               	goto	u367
  1264  00CE  0BC5               	decfsz	??_main+1,f
  1265  00CF  28CA               	goto	u367
  1266  00D0                     l968:	
  1267                           
  1268                           ;newmain.c: 94:        if(millisec >= 1000)
  1269  00D0  0140               	movlb	0	; select bank0
  1270  00D1  0841               	movf	_millisec+1,w
  1271  00D2  3A80               	xorlw	128
  1272  00D3  00C4               	movwf	??_main
  1273  00D4  3083               	movlw	131
  1274  00D5  0244               	subwf	??_main,w
  1275  00D6  1D03               	skipz
  1276  00D7  28DA               	goto	u315
  1277  00D8  30E8               	movlw	232
  1278  00D9  0240               	subwf	_millisec,w
  1279  00DA                     u315:	
  1280  00DA  1C03               	skipc
  1281  00DB  28DD               	goto	u311
  1282  00DC  28DE               	goto	u310
  1283  00DD                     u311:	
  1284  00DD  28AF               	goto	l964
  1285  00DE                     u310:	
  1286  00DE                     l970:	
  1287                           
  1288                           ;newmain.c: 95:        {;newmain.c: 96:            reading = adc_read();
  1289  00DE  3181  212E  3180   	fcall	_adc_read
  1290  00E1  0872               	movf	?_adc_read+1,w
  1291  00E2  0140               	movlb	0	; select bank0
  1292  00E3  00BF               	movwf	_reading+1
  1293  00E4  0871               	movf	?_adc_read,w
  1294  00E5  00BE               	movwf	_reading
  1295  00E6                     l972:	
  1296                           
  1297                           ;newmain.c: 98:            if(reading <levels[(jumpers&0b111)])
  1298  00E6  082D               	movf	_levels+1,w
  1299  00E7  023F               	subwf	_reading+1,w
  1300  00E8  1D03               	skipz
  1301  00E9  28EC               	goto	u325
  1302  00EA  082C               	movf	_levels,w
  1303  00EB  023E               	subwf	_reading,w
  1304  00EC                     u325:	
  1305  00EC  1803               	skipnc
  1306  00ED  28EF               	goto	u321
  1307  00EE  28F0               	goto	u320
  1308  00EF                     u321:	
  1309  00EF  2905               	goto	l79
  1310  00F0                     u320:	
  1311  00F0                     l974:	
  1312                           
  1313                           ;newmain.c: 99:            {;newmain.c: 100:               offtimer++;
  1314  00F0  3001               	movlw	1
  1315  00F1  07BA               	addwf	_offtimer,f
  1316  00F2  3000               	movlw	0
  1317  00F3  3DBB               	addwfc	_offtimer+1,f
  1318  00F4                     l976:	
  1319                           
  1320                           ;newmain.c: 101:               ontimer = 0;
  1321  00F4  01B8               	clrf	_ontimer
  1322  00F5  01B9               	clrf	_ontimer+1
  1323  00F6                     l978:	
  1324                           
  1325                           ;newmain.c: 102:               if (offtimer >=times[((jumpers&0b11100000)>>5)])
  1326  00F6  0821               	movf	_times+1,w
  1327  00F7  023B               	subwf	_offtimer+1,w
  1328  00F8  1D03               	skipz
  1329  00F9  28FC               	goto	u335
  1330  00FA  0820               	movf	_times,w
  1331  00FB  023A               	subwf	_offtimer,w
  1332  00FC                     u335:	
  1333  00FC  1C03               	skipc
  1334  00FD  28FF               	goto	u331
  1335  00FE  2900               	goto	u330
  1336  00FF                     u331:	
  1337  00FF  2905               	goto	l79
  1338  0100                     u330:	
  1339  0100                     l980:	
  1340                           
  1341                           ;newmain.c: 103:            {;newmain.c: 104:                LATCbits.LATC2 = 1;
  1342  0100  151A               	bsf	26,2	;volatile
  1343  0101                     l982:	
  1344                           
  1345                           ;newmain.c: 106:                offtimer = times[((jumpers&0b11100000)>>5)];
  1346  0101  0821               	movf	_times+1,w
  1347  0102  00BB               	movwf	_offtimer+1
  1348  0103  0820               	movf	_times,w
  1349  0104  00BA               	movwf	_offtimer
  1350  0105                     l79:	
  1351                           ;newmain.c: 108:            }
  1352                           
  1353                           
  1354                           ;newmain.c: 110:            if(reading >levels[(jumpers&0b111)])
  1355  0105  083F               	movf	_reading+1,w
  1356  0106  022D               	subwf	_levels+1,w
  1357  0107  1D03               	skipz
  1358  0108  290B               	goto	u345
  1359  0109  083E               	movf	_reading,w
  1360  010A  022C               	subwf	_levels,w
  1361  010B                     u345:	
  1362  010B  1803               	skipnc
  1363  010C  290E               	goto	u341
  1364  010D  290F               	goto	u340
  1365  010E                     u341:	
  1366  010E  2928               	goto	l994
  1367  010F                     u340:	
  1368  010F                     l984:	
  1369                           
  1370                           ;newmain.c: 111:            {;newmain.c: 112:               ontimer++;
  1371  010F  3001               	movlw	1
  1372  0110  07B8               	addwf	_ontimer,f
  1373  0111  3000               	movlw	0
  1374  0112  3DB9               	addwfc	_ontimer+1,f
  1375  0113                     l986:	
  1376                           
  1377                           ;newmain.c: 113:               offtimer = 0;
  1378  0113  01BA               	clrf	_offtimer
  1379  0114  01BB               	clrf	_offtimer+1
  1380  0115                     l988:	
  1381                           
  1382                           ;newmain.c: 114:            if (ontimer >=10)
  1383  0115  0839               	movf	_ontimer+1,w
  1384  0116  3A80               	xorlw	128
  1385  0117  00C4               	movwf	??_main
  1386  0118  3080               	movlw	128
  1387  0119  0244               	subwf	??_main,w
  1388  011A  1D03               	skipz
  1389  011B  291E               	goto	u355
  1390  011C  300A               	movlw	10
  1391  011D  0238               	subwf	_ontimer,w
  1392  011E                     u355:	
  1393  011E  1C03               	skipc
  1394  011F  2921               	goto	u351
  1395  0120  2922               	goto	u350
  1396  0121                     u351:	
  1397  0121  2928               	goto	l994
  1398  0122                     u350:	
  1399  0122                     l990:	
  1400                           
  1401                           ;newmain.c: 115:            {;newmain.c: 116:                LATCbits.LATC2 = 0;
  1402  0122  0140               	movlb	0	; select bank0
  1403  0123  111A               	bcf	26,2	;volatile
  1404  0124                     l992:	
  1405                           
  1406                           ;newmain.c: 117:                ontimer = 10;
  1407  0124  300A               	movlw	10
  1408  0125  00B8               	movwf	_ontimer
  1409  0126  3000               	movlw	0
  1410  0127  00B9               	movwf	_ontimer+1
  1411  0128                     l994:	
  1412                           
  1413                           ;newmain.c: 129:            millisec = 0;
  1414  0128  0140               	movlb	0	; select bank0
  1415  0129  01C0               	clrf	_millisec
  1416  012A  01C1               	clrf	_millisec+1
  1417  012B  28AF               	goto	l964
  1418  012C  3180  2860         	ljmp	start
  1419  012E                     __end_of_main:	
  1420                           
  1421                           	psect	text1
  1422  0184                     __ptext1:	
  1423 ;; *************** function _pwm_set *****************
  1424 ;; Defined at:
  1425 ;;		line 167 in file "newmain.c"
  1426 ;; Parameters:    Size  Location     Type
  1427 ;;  value           2    6[COMMON] unsigned int 
  1428 ;; Auto vars:     Size  Location     Type
  1429 ;;		None
  1430 ;; Return value:  Size  Location     Type
  1431 ;;                  1    wreg      void 
  1432 ;; Registers used:
  1433 ;;		wreg
  1434 ;; Tracked objects:
  1435 ;;		On entry : 0/0
  1436 ;;		On exit  : 0/0
  1437 ;;		Unchanged: 0/0
  1438 ;; Data sizes:     COMMON   BANK0   BANK1   BANK2   BANK3   BANK4   BANK5   BANK6   BANK7   BANK8   BANK9  BANK10  BANK1
      +1  BANK12  BANK13  BANK14  BANK15  BANK16  BANK17  BANK18  BANK19  BANK20  BANK21  BANK22  BANK23  BANK24  BANK25
  1439 ;;      Params:         2       0       0       0       0       0       0       0       0       0       0       0       
      +0       0       0       0       0       0       0       0       0       0       0       0       0       0       0
  1440 ;;      Locals:         0       0       0       0       0       0       0       0       0       0       0       0       
      +0       0       0       0       0       0       0       0       0       0       0       0       0       0       0
  1441 ;;      Temps:          2       0       0       0       0       0       0       0       0       0       0       0       
      +0       0       0       0       0       0       0       0       0       0       0       0       0       0       0
  1442 ;;      Totals:         4       0       0       0       0       0       0       0       0       0       0       0       
      +0       0       0       0       0       0       0       0       0       0       0       0       0       0       0
  1443 ;;Total ram usage:        4 bytes
  1444 ;; Hardware stack levels used:    1
  1445 ;; Hardware stack levels required when called:    1
  1446 ;; This function calls:
  1447 ;;		Nothing
  1448 ;; This function is called by:
  1449 ;;		_main
  1450 ;; This function uses a non-reentrant model
  1451 ;;
  1452                           
  1453                           
  1454                           ;psect for function _pwm_set
  1455  0184                     _pwm_set:	
  1456  0184                     l858:	
  1457                           ;incstack = 0
  1458                           ; Regs used in _pwm_set: [wreg]
  1459                           
  1460                           
  1461                           ;newmain.c: 167: void pwm_set(unsigned int value);newmain.c: 168: {;newmain.c: 169:     
      +                          value = value <<6;
  1462  0184  0877               	movf	pwm_set@value+1,w
  1463  0185  00F9               	movwf	??_pwm_set+1
  1464  0186  0876               	movf	pwm_set@value,w
  1465  0187  00F8               	movwf	??_pwm_set
  1466  0188  3006               	movlw	6
  1467  0189                     u165:	
  1468  0189  35F8               	lslf	??_pwm_set,f
  1469  018A  0DF9               	rlf	??_pwm_set+1,f
  1470  018B  0B89               	decfsz	9,f
  1471  018C  2989               	goto	u165
  1472  018D  0878               	movf	??_pwm_set,w
  1473  018E  00F6               	movwf	pwm_set@value
  1474  018F  0879               	movf	??_pwm_set+1,w
  1475  0190  00F7               	movwf	pwm_set@value+1
  1476                           
  1477                           ;newmain.c: 170:     PWM6DC = value;
  1478  0191  0877               	movf	pwm_set@value+1,w
  1479  0192  0147               	movlb	7	; select bank7
  1480  0193  008D               	movwf	13	;volatile
  1481  0194  0876               	movf	pwm_set@value,w
  1482  0195  008C               	movwf	12	;volatile
  1483  0196                     l100:	
  1484  0196  0008               	return
  1485  0197                     __end_of_pwm_set:	
  1486                           
  1487                           	psect	text2
  1488  016E                     __ptext2:	
  1489 ;; *************** function _pwm_init *****************
  1490 ;; Defined at:
  1491 ;;		line 155 in file "newmain.c"
  1492 ;; Parameters:    Size  Location     Type
  1493 ;;		None
  1494 ;; Auto vars:     Size  Location     Type
  1495 ;;		None
  1496 ;; Return value:  Size  Location     Type
  1497 ;;                  1    wreg      void 
  1498 ;; Registers used:
  1499 ;;		wreg, status,2, status,0
  1500 ;; Tracked objects:
  1501 ;;		On entry : 0/0
  1502 ;;		On exit  : 0/0
  1503 ;;		Unchanged: 0/0
  1504 ;; Data sizes:     COMMON   BANK0   BANK1   BANK2   BANK3   BANK4   BANK5   BANK6   BANK7   BANK8   BANK9  BANK10  BANK1
      +1  BANK12  BANK13  BANK14  BANK15  BANK16  BANK17  BANK18  BANK19  BANK20  BANK21  BANK22  BANK23  BANK24  BANK25
  1505 ;;      Params:         0       0       0       0       0       0       0       0       0       0       0       0       
      +0       0       0       0       0       0       0       0       0       0       0       0       0       0       0
  1506 ;;      Locals:         0       0       0       0       0       0       0       0       0       0       0       0       
      +0       0       0       0       0       0       0       0       0       0       0       0       0       0       0
  1507 ;;      Temps:          0       0       0       0       0       0       0       0       0       0       0       0       
      +0       0       0       0       0       0       0       0       0       0       0       0       0       0       0
  1508 ;;      Totals:         0       0       0       0       0       0       0       0       0       0       0       0       
      +0       0       0       0       0       0       0       0       0       0       0       0       0       0       0
  1509 ;;Total ram usage:        0 bytes
  1510 ;; Hardware stack levels used:    1
  1511 ;; Hardware stack levels required when called:    1
  1512 ;; This function calls:
  1513 ;;		Nothing
  1514 ;; This function is called by:
  1515 ;;		_main
  1516 ;; This function uses a non-reentrant model
  1517 ;;
  1518                           
  1519                           
  1520                           ;psect for function _pwm_init
  1521  016E                     _pwm_init:	
  1522  016E                     l834:	
  1523                           ;incstack = 0
  1524                           ; Regs used in _pwm_init: [wreg+status,2+status,0]
  1525                           
  1526                           
  1527                           ;newmain.c: 157:     RA5PPS = 0x0D;
  1528  016E  300D               	movlw	13
  1529  016F  017E               	movlb	62	; select bank62
  1530  0170  0095               	movwf	21	;volatile
  1531  0171                     l836:	
  1532                           
  1533                           ;newmain.c: 158:     TRISAbits.TRISA5 = 1;
  1534  0171  0140               	movlb	0	; select bank0
  1535  0172  1692               	bsf	18,5	;volatile
  1536  0173                     l838:	
  1537                           
  1538                           ;newmain.c: 159:     T2CONbits.CKPS = 0;
  1539  0173  308F               	movlw	-113
  1540  0174  0145               	movlb	5	; select bank5
  1541  0175  058E               	andwf	14,f	;volatile
  1542  0176                     l840:	
  1543                           
  1544                           ;newmain.c: 160:     T2CONbits.T2OUTPS = 0;
  1545  0176  30F0               	movlw	-16
  1546  0177  058E               	andwf	14,f	;volatile
  1547  0178                     l842:	
  1548                           
  1549                           ;newmain.c: 161:     T2HLTbits.MODE = 0;
  1550  0178  30E0               	movlw	-32
  1551  0179  058F               	andwf	15,f	;volatile
  1552  017A                     l844:	
  1553                           
  1554                           ;newmain.c: 162:     T2CLKCONbits.CS = 1;
  1555  017A  0810               	movf	16,w	;volatile
  1556  017B  39F0               	andlw	-16
  1557  017C  3801               	iorlw	1
  1558  017D  0090               	movwf	16	;volatile
  1559  017E                     l846:	
  1560                           
  1561                           ;newmain.c: 163:     T2CONbits.ON = 1;
  1562  017E  178E               	bsf	14,7	;volatile
  1563  017F                     l848:	
  1564                           
  1565                           ;newmain.c: 164:     PWM6CONbits.EN = 1;
  1566  017F  0147               	movlb	7	; select bank7
  1567  0180  178E               	bsf	14,7	;volatile
  1568  0181                     l850:	
  1569                           
  1570                           ;newmain.c: 165:     TRISAbits.TRISA5 = 0;
  1571  0181  0140               	movlb	0	; select bank0
  1572  0182  1292               	bcf	18,5	;volatile
  1573  0183                     l97:	
  1574  0183  0008               	return
  1575  0184                     __end_of_pwm_init:	
  1576                           
  1577                           	psect	text3
  1578  012E                     __ptext3:	
  1579 ;; *************** function _adc_read *****************
  1580 ;; Defined at:
  1581 ;;		line 146 in file "newmain.c"
  1582 ;; Parameters:    Size  Location     Type
  1583 ;;		None
  1584 ;; Auto vars:     Size  Location     Type
  1585 ;;		None
  1586 ;; Return value:  Size  Location     Type
  1587 ;;                  2    1[COMMON] int 
  1588 ;; Registers used:
  1589 ;;		wreg
  1590 ;; Tracked objects:
  1591 ;;		On entry : 0/0
  1592 ;;		On exit  : 0/0
  1593 ;;		Unchanged: 0/0
  1594 ;; Data sizes:     COMMON   BANK0   BANK1   BANK2   BANK3   BANK4   BANK5   BANK6   BANK7   BANK8   BANK9  BANK10  BANK1
      +1  BANK12  BANK13  BANK14  BANK15  BANK16  BANK17  BANK18  BANK19  BANK20  BANK21  BANK22  BANK23  BANK24  BANK25
  1595 ;;      Params:         2       0       0       0       0       0       0       0       0       0       0       0       
      +0       0       0       0       0       0       0       0       0       0       0       0       0       0       0
  1596 ;;      Locals:         0       0       0       0       0       0       0       0       0       0       0       0       
      +0       0       0       0       0       0       0       0       0       0       0       0       0       0       0
  1597 ;;      Temps:          3       0       0       0       0       0       0       0       0       0       0       0       
      +0       0       0       0       0       0       0       0       0       0       0       0       0       0       0
  1598 ;;      Totals:         5       0       0       0       0       0       0       0       0       0       0       0       
      +0       0       0       0       0       0       0       0       0       0       0       0       0       0       0
  1599 ;;Total ram usage:        5 bytes
  1600 ;; Hardware stack levels used:    1
  1601 ;; Hardware stack levels required when called:    1
  1602 ;; This function calls:
  1603 ;;		Nothing
  1604 ;; This function is called by:
  1605 ;;		_main
  1606 ;; This function uses a non-reentrant model
  1607 ;;
  1608                           
  1609                           
  1610                           ;psect for function _adc_read
  1611  012E                     _adc_read:	
  1612  012E                     l860:	
  1613                           ;incstack = 0
  1614                           ; Regs used in _adc_read: [wreg]
  1615                           
  1616                           
  1617                           ;newmain.c: 148:     ADCON0bits.GO = 1;
  1618  012E  0142               	movlb	2	; select bank2
  1619  012F  1411               	bsf	17,0	;volatile
  1620  0130                     l91:	
  1621                           ;newmain.c: 149:     while (ADCON0bits.GO_nDONE);
  1622                           
  1623  0130  1811               	btfsc	17,0	;volatile
  1624  0131  2933               	goto	u171
  1625  0132  2934               	goto	u170
  1626  0133                     u171:	
  1627  0133  2930               	goto	l91
  1628  0134                     u170:	
  1629  0134                     l862:	
  1630                           
  1631                           ;newmain.c: 150:     result = ADRESH;
  1632  0134  0141               	movlb	1	; select bank1
  1633  0135  081E               	movf	30,w	;volatile
  1634  0136  00F3               	movwf	??_adc_read
  1635  0137  01F4               	clrf	??_adc_read+1
  1636  0138  0873               	movf	??_adc_read,w
  1637  0139  0140               	movlb	0	; select bank0
  1638  013A  00C2               	movwf	_result
  1639  013B  0874               	movf	??_adc_read+1,w
  1640  013C  00C3               	movwf	_result+1
  1641                           
  1642                           ;newmain.c: 151:     result = result <<8;
  1643  013D  0843               	movf	_result+1,w
  1644  013E  00F4               	movwf	??_adc_read+1
  1645  013F  0842               	movf	_result,w
  1646  0140  00F3               	movwf	??_adc_read
  1647  0141  0873               	movf	??_adc_read,w
  1648  0142  00F4               	movwf	??_adc_read+1
  1649  0143  01F3               	clrf	??_adc_read
  1650  0144  0873               	movf	??_adc_read,w
  1651  0145  00C2               	movwf	_result
  1652  0146  0874               	movf	??_adc_read+1,w
  1653  0147  00C3               	movwf	_result+1
  1654                           
  1655                           ;newmain.c: 152:     result |= ADRESL;
  1656  0148  0141               	movlb	1	; select bank1
  1657  0149  081D               	movf	29,w	;volatile
  1658  014A  00F3               	movwf	??_adc_read
  1659  014B  01F4               	clrf	??_adc_read+1
  1660  014C  0873               	movf	??_adc_read,w
  1661  014D  0140               	movlb	0	; select bank0
  1662  014E  04C2               	iorwf	_result,f
  1663  014F  0874               	movf	??_adc_read+1,w
  1664  0150  04C3               	iorwf	_result+1,f
  1665                           
  1666                           ;newmain.c: 153:     return result;
  1667  0151  0843               	movf	_result+1,w
  1668  0152  00F2               	movwf	?_adc_read+1
  1669  0153  0842               	movf	_result,w
  1670  0154  00F1               	movwf	?_adc_read
  1671  0155                     l94:	
  1672  0155  0008               	return
  1673  0156                     __end_of_adc_read:	
  1674                           
  1675                           	psect	text4
  1676  0197                     __ptext4:	
  1677 ;; *************** function _adc_init *****************
  1678 ;; Defined at:
  1679 ;;		line 139 in file "newmain.c"
  1680 ;; Parameters:    Size  Location     Type
  1681 ;;		None
  1682 ;; Auto vars:     Size  Location     Type
  1683 ;;		None
  1684 ;; Return value:  Size  Location     Type
  1685 ;;                  1    wreg      void 
  1686 ;; Registers used:
  1687 ;;		wreg, status,2, status,0
  1688 ;; Tracked objects:
  1689 ;;		On entry : 0/0
  1690 ;;		On exit  : 0/0
  1691 ;;		Unchanged: 0/0
  1692 ;; Data sizes:     COMMON   BANK0   BANK1   BANK2   BANK3   BANK4   BANK5   BANK6   BANK7   BANK8   BANK9  BANK10  BANK1
      +1  BANK12  BANK13  BANK14  BANK15  BANK16  BANK17  BANK18  BANK19  BANK20  BANK21  BANK22  BANK23  BANK24  BANK25
  1693 ;;      Params:         0       0       0       0       0       0       0       0       0       0       0       0       
      +0       0       0       0       0       0       0       0       0       0       0       0       0       0       0
  1694 ;;      Locals:         0       0       0       0       0       0       0       0       0       0       0       0       
      +0       0       0       0       0       0       0       0       0       0       0       0       0       0       0
  1695 ;;      Temps:          0       0       0       0       0       0       0       0       0       0       0       0       
      +0       0       0       0       0       0       0       0       0       0       0       0       0       0       0
  1696 ;;      Totals:         0       0       0       0       0       0       0       0       0       0       0       0       
      +0       0       0       0       0       0       0       0       0       0       0       0       0       0       0
  1697 ;;Total ram usage:        0 bytes
  1698 ;; Hardware stack levels used:    1
  1699 ;; Hardware stack levels required when called:    1
  1700 ;; This function calls:
  1701 ;;		Nothing
  1702 ;; This function is called by:
  1703 ;;		_main
  1704 ;; This function uses a non-reentrant model
  1705 ;;
  1706                           
  1707                           
  1708                           ;psect for function _adc_init
  1709  0197                     _adc_init:	
  1710  0197                     l852:	
  1711                           ;incstack = 0
  1712                           ; Regs used in _adc_init: [wreg+status,2+status,0]
  1713                           
  1714                           
  1715                           ;newmain.c: 141:     ADCON0bits.ADFM = 1;
  1716  0197  0142               	movlb	2	; select bank2
  1717  0198  0811               	movf	17,w	;volatile
  1718  0199  39F3               	andlw	-13
  1719  019A  3804               	iorlw	4
  1720  019B  0091               	movwf	17	;volatile
  1721  019C                     l854:	
  1722                           
  1723                           ;newmain.c: 142:     TRISAbits.TRISA4 = 1;
  1724  019C  0140               	movlb	0	; select bank0
  1725  019D  1612               	bsf	18,4	;volatile
  1726                           
  1727                           ;newmain.c: 143:     ADPCHbits.ADPCH = 0b000100;
  1728  019E  0141               	movlb	1	; select bank1
  1729  019F  081F               	movf	31,w	;volatile
  1730  01A0  39C0               	andlw	-64
  1731  01A1  3804               	iorlw	4
  1732  01A2  009F               	movwf	31	;volatile
  1733  01A3                     l856:	
  1734                           
  1735                           ;newmain.c: 144:     ADCON0bits.ON = 1;
  1736  01A3  0142               	movlb	2	; select bank2
  1737  01A4  1791               	bsf	17,7	;volatile
  1738  01A5                     l88:	
  1739  01A5  0008               	return
  1740  01A6                     __end_of_adc_init:	
  1741                           
  1742                           	psect	intentry
  1743  0004                     __pintentry:	
  1744 ;; *************** function _my_isr_routine *****************
  1745 ;; Defined at:
  1746 ;;		line 175 in file "newmain.c"
  1747 ;; Parameters:    Size  Location     Type
  1748 ;;		None
  1749 ;; Auto vars:     Size  Location     Type
  1750 ;;		None
  1751 ;; Return value:  Size  Location     Type
  1752 ;;                  1    wreg      void 
  1753 ;; Registers used:
  1754 ;;		wreg, status,2, status,0
  1755 ;; Tracked objects:
  1756 ;;		On entry : 0/0
  1757 ;;		On exit  : 0/0
  1758 ;;		Unchanged: 0/0
  1759 ;; Data sizes:     COMMON   BANK0   BANK1   BANK2   BANK3   BANK4   BANK5   BANK6   BANK7   BANK8   BANK9  BANK10  BANK1
      +1  BANK12  BANK13  BANK14  BANK15  BANK16  BANK17  BANK18  BANK19  BANK20  BANK21  BANK22  BANK23  BANK24  BANK25
  1760 ;;      Params:         0       0       0       0       0       0       0       0       0       0       0       0       
      +0       0       0       0       0       0       0       0       0       0       0       0       0       0       0
  1761 ;;      Locals:         0       0       0       0       0       0       0       0       0       0       0       0       
      +0       0       0       0       0       0       0       0       0       0       0       0       0       0       0
  1762 ;;      Temps:          1       0       0       0       0       0       0       0       0       0       0       0       
      +0       0       0       0       0       0       0       0       0       0       0       0       0       0       0
  1763 ;;      Totals:         1       0       0       0       0       0       0       0       0       0       0       0       
      +0       0       0       0       0       0       0       0       0       0       0       0       0       0       0
  1764 ;;Total ram usage:        1 bytes
  1765 ;; Hardware stack levels used:    1
  1766 ;; This function calls:
  1767 ;;		Nothing
  1768 ;; This function is called by:
  1769 ;;		Interrupt level 1
  1770 ;; This function uses a non-reentrant model
  1771 ;;
  1772                           
  1773  0004                     _my_isr_routine:	
  1774                           
  1775                           ;incstack = 0
  1776  0004  147E               	bsf	int$flags,0	;set compiler interrupt flag (level 1)
  1777                           
  1778                           ; Regs used in _my_isr_routine: [wreg+status,2+status,0]
  1779  0005  3180               	pagesel	$
  1780  0006                     i1l916:	
  1781                           
  1782                           ;newmain.c: 177: if(TMR0IE&&TMR0IF)
  1783  0006  014E               	movlb	14	; select bank14
  1784  0007  1E96               	btfss	22,5	;volatile
  1785  0008  280A               	goto	u23_21
  1786  0009  280B               	goto	u23_20
  1787  000A                     u23_21:	
  1788  000A  285E               	goto	i1l112
  1789  000B                     u23_20:	
  1790  000B                     i1l918:	
  1791  000B  1E8C               	btfss	12,5	;volatile
  1792  000C  280E               	goto	u24_21
  1793  000D  280F               	goto	u24_20
  1794  000E                     u24_21:	
  1795  000E  285E               	goto	i1l112
  1796  000F                     u24_20:	
  1797  000F                     i1l920:	
  1798                           
  1799                           ;newmain.c: 178: {;newmain.c: 179:     if(powerontime == 1500)
  1800  000F  30DC               	movlw	220
  1801  0010  067A               	xorwf	_powerontime,w
  1802  0011  3005               	movlw	5
  1803  0012  1903               	skipnz
  1804  0013  067B               	xorwf	_powerontime+1,w
  1805  0014  1D03               	btfss	3,2
  1806  0015  2817               	goto	u25_21
  1807  0016  2818               	goto	u25_20
  1808  0017                     u25_21:	
  1809  0017  281A               	goto	i1l924
  1810  0018                     u25_20:	
  1811  0018                     i1l922:	
  1812                           
  1813                           ;newmain.c: 180:     {;newmain.c: 181:         LATCbits.LATC3 = 1;
  1814  0018  0140               	movlb	0	; select bank0
  1815  0019  159A               	bsf	26,3	;volatile
  1816  001A                     i1l924:	
  1817                           
  1818                           ;newmain.c: 183:     if(powerontime == 1125)
  1819  001A  3065               	movlw	101
  1820  001B  067A               	xorwf	_powerontime,w
  1821  001C  3004               	movlw	4
  1822  001D  1903               	skipnz
  1823  001E  067B               	xorwf	_powerontime+1,w
  1824  001F  1D03               	btfss	3,2
  1825  0020  2822               	goto	u26_21
  1826  0021  2823               	goto	u26_20
  1827  0022                     u26_21:	
  1828  0022  2825               	goto	i1l928
  1829  0023                     u26_20:	
  1830  0023                     i1l926:	
  1831                           
  1832                           ;newmain.c: 184:     {;newmain.c: 185:         LATCbits.LATC3 = 0;
  1833  0023  0140               	movlb	0	; select bank0
  1834  0024  119A               	bcf	26,3	;volatile
  1835  0025                     i1l928:	
  1836                           
  1837                           ;newmain.c: 187:     if(powerontime == 750)
  1838  0025  30EE               	movlw	238
  1839  0026  067A               	xorwf	_powerontime,w
  1840  0027  3002               	movlw	2
  1841  0028  1903               	skipnz
  1842  0029  067B               	xorwf	_powerontime+1,w
  1843  002A  1D03               	btfss	3,2
  1844  002B  282D               	goto	u27_21
  1845  002C  282E               	goto	u27_20
  1846  002D                     u27_21:	
  1847  002D  2830               	goto	i1l932
  1848  002E                     u27_20:	
  1849  002E                     i1l930:	
  1850                           
  1851                           ;newmain.c: 188:     {;newmain.c: 189:         LATCbits.LATC3 = 1;
  1852  002E  0140               	movlb	0	; select bank0
  1853  002F  159A               	bsf	26,3	;volatile
  1854  0030                     i1l932:	
  1855                           
  1856                           ;newmain.c: 191:     if(powerontime == 375)
  1857  0030  3077               	movlw	119
  1858  0031  067A               	xorwf	_powerontime,w
  1859  0032  1D03               	skipz
  1860  0033  2838               	goto	u28_21
  1861  0034  037B               	decf	_powerontime+1,w
  1862  0035  1D03               	btfss	3,2
  1863  0036  2838               	goto	u28_21
  1864  0037  2839               	goto	u28_20
  1865  0038                     u28_21:	
  1866  0038  283B               	goto	i1l936
  1867  0039                     u28_20:	
  1868  0039                     i1l934:	
  1869                           
  1870                           ;newmain.c: 192:     {;newmain.c: 193:         LATCbits.LATC3 = 0;
  1871  0039  0140               	movlb	0	; select bank0
  1872  003A  119A               	bcf	26,3	;volatile
  1873  003B                     i1l936:	
  1874                           
  1875                           ;newmain.c: 195:     if(powerontime == 0)
  1876  003B  087A               	movf	_powerontime,w
  1877  003C  047B               	iorwf	_powerontime+1,w
  1878  003D  1D03               	btfss	3,2
  1879  003E  2840               	goto	u29_21
  1880  003F  2841               	goto	u29_20
  1881  0040                     u29_21:	
  1882  0040  2843               	goto	i1l940
  1883  0041                     u29_20:	
  1884  0041                     i1l938:	
  1885                           
  1886                           ;newmain.c: 196:     {;newmain.c: 197:         LATCbits.LATC3 = 1;
  1887  0041  0140               	movlb	0	; select bank0
  1888  0042  159A               	bsf	26,3	;volatile
  1889  0043                     i1l940:	
  1890                           
  1891                           ;newmain.c: 199:     if(powerontime >1)
  1892  0043  087B               	movf	_powerontime+1,w
  1893  0044  3A80               	xorlw	128
  1894  0045  00F0               	movwf	??_my_isr_routine
  1895  0046  3080               	movlw	128
  1896  0047  0270               	subwf	??_my_isr_routine,w
  1897  0048  1D03               	skipz
  1898  0049  284C               	goto	u30_25
  1899  004A  3002               	movlw	2
  1900  004B  027A               	subwf	_powerontime,w
  1901  004C                     u30_25:	
  1902  004C  1C03               	skipc
  1903  004D  284F               	goto	u30_21
  1904  004E  2850               	goto	u30_20
  1905  004F                     u30_21:	
  1906  004F  2854               	goto	i1l111
  1907  0050                     u30_20:	
  1908  0050                     i1l942:	
  1909                           
  1910                           ;newmain.c: 200:     {;newmain.c: 201:         --powerontime;
  1911  0050  30FF               	movlw	255
  1912  0051  07FA               	addwf	_powerontime,f
  1913  0052  30FF               	movlw	255
  1914  0053  3DFB               	addwfc	_powerontime+1,f
  1915  0054                     i1l111:	
  1916                           ;newmain.c: 202:     }
  1917                           
  1918                           
  1919                           ;newmain.c: 204:     TMR0L = 6;
  1920  0054  3006               	movlw	6
  1921  0055  014B               	movlb	11	; select bank11
  1922  0056  009C               	movwf	28	;volatile
  1923                           
  1924                           ;newmain.c: 205:     millisec++;
  1925  0057  3001               	movlw	1
  1926  0058  0140               	movlb	0	; select bank0
  1927  0059  07C0               	addwf	_millisec,f
  1928  005A  3000               	movlw	0
  1929  005B  3DC1               	addwfc	_millisec+1,f
  1930  005C                     i1l944:	
  1931                           
  1932                           ;newmain.c: 206:     TMR0IF = 0;
  1933  005C  014E               	movlb	14	; select bank14
  1934  005D  128C               	bcf	12,5	;volatile
  1935  005E                     i1l112:	
  1936  005E  107E               	bcf	int$flags,0	;clear compiler interrupt flag (level 1)
  1937  005F  0009               	retfie
  1938  0060                     __end_of_my_isr_routine:	
  1939  007E                     btemp	set	126	;btemp
  1940  007E                     int$flags	set	126
  1941  007E                     wtemp0	set	126


Data Sizes:
    Strings     0
    Constant    0
    Data        26
    BSS         12
    Persistent  32
    Stack       0

Auto Spaces:
    Space          Size  Autos    Used
    COMMON           14     10      12
    BANK0            80      2      38
    BANK1            80      0       0
    BANK2            80      0       0
    BANK3            80      0       0
    BANK4            80      0       0
    BANK5            80      0       0
    BANK6            80      0       0
    BANK7            80      0       0
    BANK8            80      0       0
    BANK9            80      0       0
    BANK10           80      0       0
    BANK11           80      0       0
    BANK12           80      0       0
    BANK13           80      0       0
    BANK14           80      0       0
    BANK15           80      0       0
    BANK16           80      0       0
    BANK17           80      0       0
    BANK18           80      0       0
    BANK19           80      0       0
    BANK20           80      0       0
    BANK21           80      0       0
    BANK22           80      0       0
    BANK23           80      0       0
    BANK24           80      0       0
    BANK25           32      0       0

Pointer List with Targets:

    None.

Critical Paths under _main in COMMON

    _main->_pwm_set
    _pwm_set->_adc_read

Critical Paths under _my_isr_routine in COMMON

    None.

Critical Paths under _main in BANK0

    None.

Critical Paths under _my_isr_routine in BANK0

    None.

Critical Paths under _main in BANK1

    None.

Critical Paths under _my_isr_routine in BANK1

    None.

Critical Paths under _main in BANK2

    None.

Critical Paths under _my_isr_routine in BANK2

    None.

Critical Paths under _main in BANK3

    None.

Critical Paths under _my_isr_routine in BANK3

    None.

Critical Paths under _main in BANK4

    None.

Critical Paths under _my_isr_routine in BANK4

    None.

Critical Paths under _main in BANK5

    None.

Critical Paths under _my_isr_routine in BANK5

    None.

Critical Paths under _main in BANK6

    None.

Critical Paths under _my_isr_routine in BANK6

    None.

Critical Paths under _main in BANK7

    None.

Critical Paths under _my_isr_routine in BANK7

    None.

Critical Paths under _main in BANK8

    None.

Critical Paths under _my_isr_routine in BANK8

    None.

Critical Paths under _main in BANK9

    None.

Critical Paths under _my_isr_routine in BANK9

    None.

Critical Paths under _main in BANK10

    None.

Critical Paths under _my_isr_routine in BANK10

    None.

Critical Paths under _main in BANK11

    None.

Critical Paths under _my_isr_routine in BANK11

    None.

Critical Paths under _main in BANK12

    None.

Critical Paths under _my_isr_routine in BANK12

    None.

Critical Paths under _main in BANK13

    None.

Critical Paths under _my_isr_routine in BANK13

    None.

Critical Paths under _main in BANK14

    None.

Critical Paths under _my_isr_routine in BANK14

    None.

Critical Paths under _main in BANK15

    None.

Critical Paths under _my_isr_routine in BANK15

    None.

Critical Paths under _main in BANK16

    None.

Critical Paths under _my_isr_routine in BANK16

    None.

Critical Paths under _main in BANK17

    None.

Critical Paths under _my_isr_routine in BANK17

    None.

Critical Paths under _main in BANK18

    None.

Critical Paths under _my_isr_routine in BANK18

    None.

Critical Paths under _main in BANK19

    None.

Critical Paths under _my_isr_routine in BANK19

    None.

Critical Paths under _main in BANK20

    None.

Critical Paths under _my_isr_routine in BANK20

    None.

Critical Paths under _main in BANK21

    None.

Critical Paths under _my_isr_routine in BANK21

    None.

Critical Paths under _main in BANK22

    None.

Critical Paths under _my_isr_routine in BANK22

    None.

Critical Paths under _main in BANK23

    None.

Critical Paths under _my_isr_routine in BANK23

    None.

Critical Paths under _main in BANK24

    None.

Critical Paths under _my_isr_routine in BANK24

    None.

Critical Paths under _main in BANK25

    None.

Critical Paths under _my_isr_routine in BANK25

    None.

Call Graph Tables:

 ---------------------------------------------------------------------------------
 (Depth) Function   	        Calls       Base Space   Used Autos Params    Refs
 ---------------------------------------------------------------------------------
 (0) _main                                                 2     2      0     197
                                              0 BANK0      2     2      0
                           _adc_init
                           _adc_read
                           _pwm_init
                            _pwm_set
 ---------------------------------------------------------------------------------
 (1) _pwm_set                                              4     2      2     197
                                              6 COMMON     4     2      2
                           _adc_read (ARG)
 ---------------------------------------------------------------------------------
 (1) _pwm_init                                             0     0      0       0
 ---------------------------------------------------------------------------------
 (1) _adc_read                                             5     3      2       0
                                              1 COMMON     5     3      2
 ---------------------------------------------------------------------------------
 (1) _adc_init                                             0     0      0       0
 ---------------------------------------------------------------------------------
 Estimated maximum stack depth 1
 ---------------------------------------------------------------------------------
 (Depth) Function   	        Calls       Base Space   Used Autos Params    Refs
 ---------------------------------------------------------------------------------
 (2) _my_isr_routine                                       1     1      0       0
                                              0 COMMON     1     1      0
 ---------------------------------------------------------------------------------
 Estimated maximum stack depth 2
 ---------------------------------------------------------------------------------

 Call Graph Graphs:

 _main (ROOT)
   _adc_init
   _adc_read
   _pwm_init
   _pwm_set
     _adc_read (ARG)

 _my_isr_routine (ROOT)

 Address spaces:
Name               Size   Autos  Total    Cost      Usage
BIGRAM             7F0      0       0       0        0.0%
EEDATA             100      0       0       0        0.0%
NULL                 0      0       0       0        0.0%
CODE                 0      0       0       0        0.0%
BITCOMMON            E      0       0       1        0.0%
BITSFR0              0      0       0       1        0.0%
SFR0                 0      0       0       1        0.0%
COMMON               E      A       C       2       85.7%
BITSFR1              0      0       0       2        0.0%
SFR1                 0      0       0       2        0.0%
BITSFR2              0      0       0       3        0.0%
SFR2                 0      0       0       3        0.0%
STACK                0      0       0       3        0.0%
BITBANK0            50      0       0       4        0.0%
BITSFR3              0      0       0       4        0.0%
SFR3                 0      0       0       4        0.0%
BANK0               50      2      26       5       47.5%
BITSFR4              0      0       0       5        0.0%
SFR4                 0      0       0       5        0.0%
BITSFR5              0      0       0       6        0.0%
SFR5                 0      0       0       6        0.0%
ABS                  0      0      32       6        0.0%
BITBANK1            50      0       0       7        0.0%
BITSFR6              0      0       0       7        0.0%
SFR6                 0      0       0       7        0.0%
BANK1               50      0       0       8        0.0%
BITSFR7              0      0       0       8        0.0%
SFR7                 0      0       0       8        0.0%
BITBANK2            50      0       0       9        0.0%
BITSFR8              0      0       0       9        0.0%
SFR8                 0      0       0       9        0.0%
BANK2               50      0       0      10        0.0%
BITSFR9              0      0       0      10        0.0%
SFR9                 0      0       0      10        0.0%
BITBANK3            50      0       0      11        0.0%
BITSFR10             0      0       0      11        0.0%
SFR10                0      0       0      11        0.0%
BANK3               50      0       0      12        0.0%
BITSFR11             0      0       0      12        0.0%
SFR11                0      0       0      12        0.0%
BITBANK4            50      0       0      13        0.0%
BITSFR12             0      0       0      13        0.0%
SFR12                0      0       0      13        0.0%
BANK4               50      0       0      14        0.0%
BITSFR13             0      0       0      14        0.0%
SFR13                0      0       0      14        0.0%
BITBANK5            50      0       0      15        0.0%
BITSFR14             0      0       0      15        0.0%
SFR14                0      0       0      15        0.0%
BANK5               50      0       0      16        0.0%
BITSFR15             0      0       0      16        0.0%
SFR15                0      0       0      16        0.0%
BITBANK6            50      0       0      17        0.0%
BITSFR16             0      0       0      17        0.0%
SFR16                0      0       0      17        0.0%
BANK6               50      0       0      18        0.0%
BITSFR17             0      0       0      18        0.0%
SFR17                0      0       0      18        0.0%
BITBANK7            50      0       0      19        0.0%
BITSFR18             0      0       0      19        0.0%
SFR18                0      0       0      19        0.0%
BANK7               50      0       0      20        0.0%
BITSFR19             0      0       0      20        0.0%
SFR19                0      0       0      20        0.0%
BITBANK8            50      0       0      21        0.0%
BITSFR20             0      0       0      21        0.0%
SFR20                0      0       0      21        0.0%
BANK8               50      0       0      22        0.0%
BITSFR21             0      0       0      22        0.0%
SFR21                0      0       0      22        0.0%
BITBANK9            50      0       0      23        0.0%
BITSFR22             0      0       0      23        0.0%
SFR22                0      0       0      23        0.0%
BANK9               50      0       0      24        0.0%
BITSFR23             0      0       0      24        0.0%
SFR23                0      0       0      24        0.0%
BITBANK10           50      0       0      25        0.0%
BITSFR24             0      0       0      25        0.0%
SFR24                0      0       0      25        0.0%
BANK10              50      0       0      26        0.0%
BITSFR25             0      0       0      26        0.0%
SFR25                0      0       0      26        0.0%
BITBANK11           50      0       0      27        0.0%
BITSFR26             0      0       0      27        0.0%
SFR26                0      0       0      27        0.0%
BANK11              50      0       0      28        0.0%
BITSFR27             0      0       0      28        0.0%
SFR27                0      0       0      28        0.0%
BITBANK12           50      0       0      29        0.0%
BITSFR28             0      0       0      29        0.0%
SFR28                0      0       0      29        0.0%
BANK12              50      0       0      30        0.0%
BITSFR29             0      0       0      30        0.0%
SFR29                0      0       0      30        0.0%
BITBANK13           50      0       0      31        0.0%
BITSFR30             0      0       0      31        0.0%
SFR30                0      0       0      31        0.0%
BANK13              50      0       0      32        0.0%
BITSFR31             0      0       0      32        0.0%
SFR31                0      0       0      32        0.0%
BITBANK14           50      0       0      33        0.0%
BITSFR32             0      0       0      33        0.0%
SFR32                0      0       0      33        0.0%
BANK14              50      0       0      34        0.0%
BITSFR33             0      0       0      34        0.0%
SFR33                0      0       0      34        0.0%
BITBANK15           50      0       0      35        0.0%
BITSFR34             0      0       0      35        0.0%
SFR34                0      0       0      35        0.0%
BANK15              50      0       0      36        0.0%
BITSFR35             0      0       0      36        0.0%
SFR35                0      0       0      36        0.0%
BITBANK16           50      0       0      37        0.0%
BITSFR36             0      0       0      37        0.0%
SFR36                0      0       0      37        0.0%
BANK16              50      0       0      38        0.0%
BITSFR37             0      0       0      38        0.0%
SFR37                0      0       0      38        0.0%
BITBANK17           50      0       0      39        0.0%
BITSFR38             0      0       0      39        0.0%
SFR38                0      0       0      39        0.0%
BANK17              50      0       0      40        0.0%
BITSFR39             0      0       0      40        0.0%
SFR39                0      0       0      40        0.0%
BITBANK18           50      0       0      41        0.0%
BITSFR40             0      0       0      41        0.0%
SFR40                0      0       0      41        0.0%
BANK18              50      0       0      42        0.0%
BITSFR41             0      0       0      42        0.0%
SFR41                0      0       0      42        0.0%
BITBANK19           50      0       0      43        0.0%
BITSFR42             0      0       0      43        0.0%
SFR42                0      0       0      43        0.0%
BANK19              50      0       0      44        0.0%
BITSFR43             0      0       0      44        0.0%
SFR43                0      0       0      44        0.0%
BITBANK20           50      0       0      45        0.0%
BITSFR44             0      0       0      45        0.0%
SFR44                0      0       0      45        0.0%
BANK20              50      0       0      46        0.0%
BITSFR45             0      0       0      46        0.0%
SFR45                0      0       0      46        0.0%
BITBANK21           50      0       0      47        0.0%
BITSFR46             0      0       0      47        0.0%
SFR46                0      0       0      47        0.0%
BANK21              50      0       0      48        0.0%
BITSFR47             0      0       0      48        0.0%
SFR47                0      0       0      48        0.0%
BITBANK22           50      0       0      49        0.0%
BITSFR48             0      0       0      49        0.0%
SFR48                0      0       0      49        0.0%
BANK22              50      0       0      50        0.0%
BITSFR49             0      0       0      50        0.0%
SFR49                0      0       0      50        0.0%
BITBANK23           50      0       0      51        0.0%
BITSFR50             0      0       0      51        0.0%
SFR50                0      0       0      51        0.0%
BANK23              50      0       0      52        0.0%
BITSFR51             0      0       0      52        0.0%
SFR51                0      0       0      52        0.0%
BITBANK24           50      0       0      53        0.0%
BITSFR52             0      0       0      53        0.0%
SFR52                0      0       0      53        0.0%
BANK24              50      0       0      54        0.0%
BITSFR53             0      0       0      54        0.0%
SFR53                0      0       0      54        0.0%
BITBANK25           20      0       0      55        0.0%
BITSFR54             0      0       0      55        0.0%
SFR54                0      0       0      55        0.0%
BANK25              20      0       0      56        0.0%
BITSFR55             0      0       0      56        0.0%
SFR55                0      0       0      56        0.0%
BITSFR56             0      0       0      57        0.0%
SFR56                0      0       0      57        0.0%
DATA                 0      0      32      57        0.0%
BITSFR57             0      0       0      58        0.0%
SFR57                0      0       0      58        0.0%
BITSFR58             0      0       0      59        0.0%
SFR58                0      0       0      59        0.0%
BITSFR59             0      0       0      60        0.0%
SFR59                0      0       0      60        0.0%
BITSFR60             0      0       0      61        0.0%
SFR60                0      0       0      61        0.0%
BITSFR61             0      0       0      62        0.0%
SFR61                0      0       0      62        0.0%
BITSFR62             0      0       0      63        0.0%
SFR62                0      0       0      63        0.0%
BITSFR63             0      0       0      64        0.0%
SFR63                0      0       0      64        0.0%


Microchip Technology PIC Macro Assembler V2.10 build 88905656 
Symbol Table                                                                                   Mon Jan 27 01:59:13 2020

            _powerontime 007A              __CFG_CP$OFF 0000                       l91 0130  
                     l94 0155                       l79 0105                       l88 01A5  
                     l97 0183              __CFG_LVP$ON 0000                      l100 0196  
                    l840 0176                      l850 0181                      l842 0178  
                    l834 016E                      l852 0197                      l860 012E  
                    l844 017A                      l836 0171                      l854 019C  
                    l862 0134                      l846 017E                      l838 0173  
                    l950 0094                      l856 01A3                      l848 017F  
                    l960 00A5                      l952 0095                      l858 0184  
                    l970 00DE                      l962 00A8                      l954 0096  
                    l946 0086                      l980 0100                      l972 00E6  
                    l964 00AF                      l956 00A0                      l948 0089  
                    l990 0122                      l982 0101                      l974 00F0  
                    l966 00C4                      l958 00A2                      l992 0124  
                    l984 010F                      l976 00F4                      l968 00D0  
                    l986 0113                      l994 0128                      l978 00F6  
                    l988 0115                      u310 00DE                      u311 00DD  
                    u320 00F0                      u321 00EF                      u170 0134  
                    u330 0100                      u171 0133                      u331 00FF  
                    u315 00DA                      u340 010F                      u165 0189  
                    u341 010E                      u325 00EC                      u350 0122  
                    u351 0121                      u335 00FC                      u345 010B  
                    u355 011E                      u367 00CA             __CFG_BORV$LO 0000  
                    wreg 0009            __CFG_BBEN$OFF 0000            __CFG_FCMEN$ON 0000  
                   _main 0086                     fsr0h 0005                     fsr1h 0007  
                   fsr0l 0004                     fsr1l 0006                     btemp 007E  
                   start 0060            __CFG_CSWEN$ON 0000            __CFG_MCLRE$ON 0000  
                  ?_main 0070            __CFG_WDTE$OFF 0000                    i1l111 0054  
                  i1l112 005E                    i1l920 000F                    i1l930 002E  
                  i1l922 0018                    i1l940 0043                    i1l932 0030  
                  i1l924 001A                    i1l916 0006                    i1l942 0050  
                  i1l934 0039                    i1l926 0023                    i1l918 000B  
                  i1l944 005C                    i1l936 003B                    i1l928 0025  
                  i1l938 0041                    u30_20 0050                    u30_21 004F  
                  u30_25 004C                    u23_20 000B                    u23_21 000A  
                  u24_20 000F                    u24_21 000E                    u25_20 0018  
                  u25_21 0017                    _TMR0L 059C                    u26_20 0023  
                  u26_21 0022                    u27_20 002E                    u27_21 002D  
                  u28_20 0039                    u28_21 0038                    u29_20 0041  
                  u29_21 0040            __CFG_WRTB$OFF 0000            __CFG_WRTC$OFF 0000  
          __CFG_WRTD$OFF 0000                    _times 0020           __CFG_BOREN$OFF 0000  
        __end_of_pwm_set 0197                    status 0003                    wtemp0 007E  
        __initialization 0062             __end_of_main 012E           __CFG_SAFEN$OFF 0000  
                 ??_main 0044                   _ADRESH 009E                   _ADRESL 009D  
           pwm_set@value 0076                   _RA5PPS 1F15         __end_of_adc_init 01A6  
       __end_of_adc_read 0156           __CFG_WDTCCS$SC 0000                   _TMR0IE 38B5  
                 _TMR0IF 3865                   _PWM6DC 038C           __CFG_PWRTS$OFF 0000  
         __CFG_STVREN$ON 0000                   _levels 002C                   _result 0042  
           __pdataCOMMON 007A         __end_of_pwm_init 0184                ??_pwm_set 0078  
__end_of__initialization 0082           __pcstackCOMMON 0070             __pidataBANK0 0156  
             __pbssBANK0 0038             _T2CLKCONbits 0290               __pmaintext 0086  
             __pintentry 0004          __CFG_ZCDDIS$OFF 0000                ?_adc_init 0070  
              ?_adc_read 0071      __CFG_RSTOSC$HFINT32 0000  __size_of_my_isr_routine 005C  
              _ADPCHbits 009F                ?_pwm_init 0070               ??_adc_init 0071  
             ??_adc_read 0073                  __ptext1 0184                  __ptext2 016E  
                __ptext3 012E                  __ptext4 0197          __CFG_WRTAPP$OFF 0000  
              _T2CONbits 028E                  _reading 003E                _T2HLTbits 028F  
        __CFG_WRTSAF$OFF 0000                  _jumpers 003C                  _ontimer 0038  
                _pwm_set 0184     end_of_initialization 0082                  init_ram 01A6  
                initloop 01A7               ??_pwm_init 0071    __CFG_WDTCPS$WDTCPS_31 0000  
              _TRISAbits 0012                _TRISCbits 0014         __CFG_FEXTOSC$OFF 0000  
          __pidataCOMMON 01AC      start_initialization 0062           _my_isr_routine 0004  
       __CFG_LPBOREN$OFF 0000              __pdataBANK0 0020        __size_of_adc_init 000F  
      __size_of_adc_read 0028                ___latbits 0003            __pcstackBANK0 0044  
 __end_of_my_isr_routine 0060         __CFG_PPS1WAY$OFF 0000        __size_of_pwm_init 0016  
        ?_my_isr_routine 0070                 ?_pwm_set 0076                 _LATCbits 001A  
               _PIE0bits 0716        __CFG_BBSIZE$BB512 0000               _ADCON0bits 0111  
               _adc_init 0197                 _adc_read 012E               _T0CON0bits 059E  
             _T0CON1bits 059F         __size_of_pwm_set 0013              _OSCCON1bits 088D  
          __size_of_main 00A8                 _offtimer 003A                 _millisec 0040  
   __CFG_WDTCWS$WDTCWS_7 0000                 int$flags 007E                 _pwm_init 016E  
             _INTCONbits 000B              _PWM6CONbits 038E                 intlevel1 0000  
      __CFG_CLKOUTEN$OFF 0000               _OSCFRQbits 0893         ??_my_isr_routine 0070  
